; Function Attrs: mustprogress uwtable
define dso_local void @_ZN3net21QuicSentPacketManager37UpdatePacketInformationReceivedByPeerERKNS_12QuicAckFrameE(ptr nocapture noundef nonnull writeonly align 8 dereferenceable(776) %this, ptr noundef nonnull align 8 dereferenceable(100) %ack_frame) local_unnamed_addr #0 align 2 {
entry:
  %packets = getelementptr inbounds i8, ptr %ack_frame, i64 48
  %call = tail call noundef zeroext i1 @_ZNK3net17PacketNumberQueue5EmptyEv(ptr noundef nonnull align 8 dereferenceable(48) %packets)
  br i1 %call, label %if.then, label %if.else

if.then:                                          ; preds = %entry
  %0 = load i64, ptr %ack_frame, align 8
  %add = add i64 %0, 1
  br label %if.end

if.else:                                          ; preds = %entry
  %call3 = tail call noundef i64 @_ZNK3net17PacketNumberQueue3MinEv(ptr noundef nonnull align 8 dereferenceable(48) %packets)
  br label %if.end

if.end:                                           ; preds = %if.else, %if.then
  %call3.sink = phi i64 [ %add, %if.then ], [ %call3, %if.else ]
  %1 = getelementptr inbounds i8, ptr %this, i64 552
  store i64 %call3.sink, ptr %1, align 8
  ret void
}